target datalayout = "e-m:e-p270:32:32-p271:32:32-p272:64:64-i64:64-i128:128-f80:128-n8:16:32:64-S128"
target triple = "x86_64-pc-linux-gnu"

%struct._object = type { %union.anon, ptr }
%union.anon = type { i64 }
%struct.PyVarObject = type { %struct._object, i64 }
%struct.PyListObject = type { %struct.PyVarObject, ptr, i64 }
%struct.anon = type { i32, i32 }

@PyExc_IndexError = external global ptr, align 8
@.str.3 = private unnamed_addr constant [35 x i8] c"list assignment index out of range\00", align 1

; Function Attrs: alwaysinline nounwind uwtable
define internal i32 @_Py_IsImmortal(ptr noundef %0) #4 {
  %2 = alloca ptr, align 8
  store ptr %0, ptr %2, align 8, !tbaa !36
  %3 = load ptr, ptr %2, align 8, !tbaa !36
  %4 = getelementptr inbounds nuw %struct._object, ptr %3, i32 0, i32 0
  %5 = getelementptr inbounds nuw %struct.anon, ptr %4, i32 0, i32 0
  %6 = load i32, ptr %5, align 8, !tbaa !37
  %7 = icmp slt i32 %6, 0
  %8 = zext i1 %7 to i32
  ret i32 %8
}

; Function Attrs: alwaysinline nounwind uwtable
define internal void @Py_INCREF(ptr noundef %0) #4 {
  %2 = alloca ptr, align 8
  %3 = alloca i32, align 4
  %4 = alloca i32, align 4
  store ptr %0, ptr %2, align 8, !tbaa !36
  call void @llvm.lifetime.start.p0(i64 4, ptr %3) #8
  %5 = load ptr, ptr %2, align 8, !tbaa !36
  %6 = getelementptr inbounds nuw %struct._object, ptr %5, i32 0, i32 0
  %7 = getelementptr inbounds nuw %struct.anon, ptr %6, i32 0, i32 0
  %8 = load i32, ptr %7, align 8, !tbaa !37
  store i32 %8, ptr %3, align 4, !tbaa !118
  %9 = load i32, ptr %3, align 4, !tbaa !118
  %10 = icmp slt i32 %9, 0
  br i1 %10, label %11, label %12

11:                                               ; preds = %1
  store i32 1, ptr %4, align 4
  br label %18

12:                                               ; preds = %1
  %13 = load i32, ptr %3, align 4, !tbaa !118
  %14 = add i32 %13, 1
  %15 = load ptr, ptr %2, align 8, !tbaa !36
  %16 = getelementptr inbounds nuw %struct._object, ptr %15, i32 0, i32 0
  %17 = getelementptr inbounds nuw %struct.anon, ptr %16, i32 0, i32 0
  store i32 %14, ptr %17, align 8, !tbaa !37
  store i32 0, ptr %4, align 4
  br label %18

18:                                               ; preds = %12, %11
  call void @llvm.lifetime.end.p0(i64 4, ptr %3) #8
  %19 = load i32, ptr %4, align 4
  switch i32 %19, label %21 [
    i32 0, label %20
    i32 1, label %20
  ]

20:                                               ; preds = %18, %18
  ret void

21:                                               ; preds = %18
  unreachable
}

; Function Attrs: alwaysinline nounwind uwtable
define internal void @Py_DECREF(ptr noundef %0) #4 {
  %2 = alloca ptr, align 8
  store ptr %0, ptr %2, align 8, !tbaa !36
  %3 = load ptr, ptr %2, align 8, !tbaa !36
  %4 = call i32 @_Py_IsImmortal(ptr noundef %3)
  %5 = icmp ne i32 %4, 0
  br i1 %5, label %6, label %7

6:                                                ; preds = %1
  br label %16

7:                                                ; preds = %1
  %8 = load ptr, ptr %2, align 8, !tbaa !36
  %9 = getelementptr inbounds nuw %struct._object, ptr %8, i32 0, i32 0
  %10 = getelementptr inbounds nuw %struct.anon, ptr %9, i32 0, i32 0
  %11 = load i32, ptr %10, align 8, !tbaa !37
  %12 = add i32 %11, -1
  store i32 %12, ptr %10, align 8, !tbaa !37
  %13 = icmp eq i32 %12, 0
  br i1 %13, label %14, label %16

14:                                               ; preds = %7
  %15 = load ptr, ptr %2, align 8, !tbaa !36
  call void @_Py_Dealloc(ptr noundef %15)
  br label %16

16:                                               ; preds = %6, %14, %7
  ret void
}

; Function Attrs: inlinehint nounwind uwtable
define internal ptr @_Py_NewRef(ptr noundef %0) #2 {
  %2 = alloca ptr, align 8
  store ptr %0, ptr %2, align 8, !tbaa !36
  %3 = load ptr, ptr %2, align 8, !tbaa !36
  call void @Py_INCREF(ptr noundef %3)
  %4 = load ptr, ptr %2, align 8, !tbaa !36
  ret ptr %4
}

; Function Attrs: inlinehint nounwind uwtable
define internal void @Py_SET_SIZE(ptr noundef %0, i64 noundef %1) #2 {
  %3 = alloca ptr, align 8
  %4 = alloca i64, align 8
  store ptr %0, ptr %3, align 8, !tbaa !27
  store i64 %1, ptr %4, align 8, !tbaa !26
  %5 = load i64, ptr %4, align 8, !tbaa !26
  %6 = load ptr, ptr %3, align 8, !tbaa !27
  %7 = getelementptr inbounds nuw %struct.PyVarObject, ptr %6, i32 0, i32 1
  store i64 %5, ptr %7, align 8, !tbaa !38
  ret void
}

; Function Attrs: inlinehint nounwind uwtable
define internal i32 @valid_index(i64 noundef %0, i64 noundef %1) #2 {
  %3 = alloca i64, align 8
  %4 = alloca i64, align 8
  store i64 %0, ptr %3, align 8, !tbaa !26
  store i64 %1, ptr %4, align 8, !tbaa !26
  %5 = load i64, ptr %3, align 8, !tbaa !26
  %6 = load i64, ptr %4, align 8, !tbaa !26
  %7 = icmp ult i64 %5, %6
  %8 = zext i1 %7 to i32
  ret i32 %8
}

; Function Attrs: inlinehint nounwind uwtable
define internal i64 @Py_SIZE(ptr noundef %0) #2 {
  %2 = alloca ptr, align 8
  store ptr %0, ptr %2, align 8, !tbaa !36
  %3 = load ptr, ptr %2, align 8, !tbaa !36
  %4 = getelementptr inbounds nuw %struct.PyVarObject, ptr %3, i32 0, i32 1
  %5 = load i64, ptr %4, align 8, !tbaa !38
  ret i64 %5
}

; Function Attrs: nounwind uwtable
define internal i32 @list_ass_item_lock_held(ptr noundef %0, i64 noundef %1, ptr noundef %2) #0 {
  %4 = alloca i32, align 4
  %5 = alloca ptr, align 8
  %6 = alloca i64, align 8
  %7 = alloca ptr, align 8
  %8 = alloca ptr, align 8
  %9 = alloca i64, align 8
  %10 = alloca i64, align 8
  store ptr %0, ptr %5, align 8, !tbaa !27
  store i64 %1, ptr %6, align 8, !tbaa !26
  store ptr %2, ptr %7, align 8, !tbaa !36
  %11 = load i64, ptr %6, align 8, !tbaa !26
  %12 = load ptr, ptr %5, align 8, !tbaa !27
  %13 = call i64 @Py_SIZE(ptr noundef %12)
  %14 = call i32 @valid_index(i64 noundef %11, i64 noundef %13)
  %15 = icmp ne i32 %14, 0
  br i1 %15, label %18, label %16

16:                                               ; preds = %3
  %17 = load ptr, ptr @PyExc_IndexError, align 8, !tbaa !36
  call void @PyErr_SetString(ptr noundef %17, ptr noundef @.str.3)
  store i32 -1, ptr %4, align 4
  br label %67

18:                                               ; preds = %3
  call void @llvm.lifetime.start.p0(i64 8, ptr %8) #8
  %19 = load ptr, ptr %5, align 8, !tbaa !27
  %20 = getelementptr inbounds nuw %struct.PyListObject, ptr %19, i32 0, i32 1
  %21 = load ptr, ptr %20, align 8, !tbaa !28
  %22 = load i64, ptr %6, align 8, !tbaa !26
  %23 = getelementptr ptr, ptr %21, i64 %22
  %24 = load ptr, ptr %23, align 8, !tbaa !36
  store ptr %24, ptr %8, align 8, !tbaa !36
  %25 = load ptr, ptr %7, align 8, !tbaa !36
  %26 = icmp eq ptr %25, null
  br i1 %26, label %27, label %57

27:                                               ; preds = %18
  call void @llvm.lifetime.start.p0(i64 8, ptr %9) #8
  %28 = load ptr, ptr %5, align 8, !tbaa !27
  %29 = call i64 @Py_SIZE(ptr noundef %28)
  store i64 %29, ptr %9, align 8, !tbaa !26
  call void @llvm.lifetime.start.p0(i64 8, ptr %10) #8
  %30 = load i64, ptr %6, align 8, !tbaa !26
  store i64 %30, ptr %10, align 8, !tbaa !26
  br label %31

31:                                               ; preds = %50, %27
  %32 = load i64, ptr %10, align 8, !tbaa !26
  %33 = load i64, ptr %9, align 8, !tbaa !26
  %34 = sub i64 %33, 1
  %35 = icmp slt i64 %32, %34
  br i1 %35, label %37, label %36

36:                                               ; preds = %31
  call void @llvm.lifetime.end.p0(i64 8, ptr %10) #8
  br label %53

37:                                               ; preds = %31
  %38 = load ptr, ptr %5, align 8, !tbaa !27
  %39 = getelementptr inbounds nuw %struct.PyListObject, ptr %38, i32 0, i32 1
  %40 = load ptr, ptr %39, align 8, !tbaa !28
  %41 = load i64, ptr %10, align 8, !tbaa !26
  %42 = add i64 %41, 1
  %43 = getelementptr ptr, ptr %40, i64 %42
  %44 = load ptr, ptr %43, align 8, !tbaa !36
  %45 = load ptr, ptr %5, align 8, !tbaa !27
  %46 = getelementptr inbounds nuw %struct.PyListObject, ptr %45, i32 0, i32 1
  %47 = load ptr, ptr %46, align 8, !tbaa !28
  %48 = load i64, ptr %10, align 8, !tbaa !26
  %49 = getelementptr ptr, ptr %47, i64 %48
  store ptr %44, ptr %49, align 8, !tbaa !36
  br label %50

50:                                               ; preds = %37
  %51 = load i64, ptr %10, align 8, !tbaa !26
  %52 = add i64 %51, 1
  store i64 %52, ptr %10, align 8, !tbaa !26
  br label %31, !llvm.loop !229

53:                                               ; preds = %36
  %54 = load ptr, ptr %5, align 8, !tbaa !27
  %55 = load i64, ptr %9, align 8, !tbaa !26
  %56 = sub i64 %55, 1
  call void @Py_SET_SIZE(ptr noundef %54, i64 noundef %56)
  call void @llvm.lifetime.end.p0(i64 8, ptr %9) #8
  br label %65

57:                                               ; preds = %18
  %58 = load ptr, ptr %7, align 8, !tbaa !36
  %59 = call ptr @_Py_NewRef(ptr noundef %58)
  %60 = load ptr, ptr %5, align 8, !tbaa !27
  %61 = getelementptr inbounds nuw %struct.PyListObject, ptr %60, i32 0, i32 1
  %62 = load ptr, ptr %61, align 8, !tbaa !28
  %63 = load i64, ptr %6, align 8, !tbaa !26
  %64 = getelementptr ptr, ptr %62, i64 %63
  store ptr %59, ptr %64, align 8, !tbaa !36
  br label %65

65:                                               ; preds = %57, %53
  %66 = load ptr, ptr %8, align 8, !tbaa !36
  call void @Py_DECREF(ptr noundef %66)
  store i32 0, ptr %4, align 4
  call void @llvm.lifetime.end.p0(i64 8, ptr %8) #8
  br label %67

67:                                               ; preds = %65, %16
  %68 = load i32, ptr %4, align 4
  ret i32 %68
}

; Function Attrs: nounwind uwtable
define internal i32 @list_ass_item(ptr noundef %0, i64 noundef %1, ptr noundef %2) #0 {
  %4 = alloca ptr, align 8
  %5 = alloca i64, align 8
  %6 = alloca ptr, align 8
  %7 = alloca i32, align 4
  %8 = alloca ptr, align 8
  store ptr %0, ptr %4, align 8, !tbaa !36
  store i64 %1, ptr %5, align 8, !tbaa !26
  store ptr %2, ptr %6, align 8, !tbaa !36
  call void @llvm.lifetime.start.p0(i64 4, ptr %7) #8
  call void @llvm.lifetime.start.p0(i64 8, ptr %8) #8
  %9 = load ptr, ptr %4, align 8, !tbaa !36
  store ptr %9, ptr %8, align 8, !tbaa !27
  %10 = load ptr, ptr %8, align 8, !tbaa !27
  %11 = load i64, ptr %5, align 8, !tbaa !26
  %12 = load ptr, ptr %6, align 8, !tbaa !36
  %13 = call i32 @list_ass_item_lock_held(ptr noundef %10, i64 noundef %11, ptr noundef %12)
  store i32 %13, ptr %7, align 4, !tbaa !118
  %14 = load i32, ptr %7, align 4, !tbaa !118
  call void @llvm.lifetime.end.p0(i64 8, ptr %8) #8
  call void @llvm.lifetime.end.p0(i64 4, ptr %7) #8
  ret i32 %14
}