; Function Attrs: nounwind uwtable
define internal range(i32 -1, 1) i32 @list_ass_item(ptr noundef captures(none) %0, i64 noundef %1, ptr noundef %2) #0 {
  %4 = getelementptr i8, ptr %0, i64 16
  %.val23.i = load i64, ptr %4, align 8, !tbaa !33
  %.not.i = icmp ult i64 %1, %.val23.i
  br i1 %.not.i, label %7, label %5

5:                                                ; preds = %3
  %6 = load ptr, ptr @PyExc_IndexError, align 8, !tbaa !112
  tail call void @PyErr_SetString(ptr noundef %6, ptr noundef nonnull @.str.3) #12
  br label %list_ass_item_lock_held.exit

7:                                                ; preds = %3
  %8 = getelementptr inbounds nuw i8, ptr %0, i64 24
  %9 = load ptr, ptr %8, align 8, !tbaa !27
  %10 = getelementptr ptr, ptr %9, i64 %1
  %11 = load ptr, ptr %10, align 8, !tbaa !112
  %12 = icmp eq ptr %2, null
  br i1 %12, label %.preheader.i, label %19

.preheader.i:                                     ; preds = %7
  %13 = add i64 %.val23.i, -1
  %14 = icmp slt i64 %1, %13
  br i1 %14, label %.lr.ph.i, label %._crit_edge.i

._crit_edge.i:                                    ; preds = %.lr.ph.i, %.preheader.i
  store i64 %13, ptr %4, align 8, !tbaa !33
  br label %26

.lr.ph.i:                                         ; preds = %.preheader.i, %.lr.ph.i
  %.024.i = phi i64 [ %15, %.lr.ph.i ], [ %1, %.preheader.i ]
  %15 = add nsw i64 %.024.i, 1
  %16 = getelementptr ptr, ptr %9, i64 %15
  %17 = load ptr, ptr %16, align 8, !tbaa !112
  %18 = getelementptr ptr, ptr %9, i64 %.024.i
  store ptr %17, ptr %18, align 8, !tbaa !112
  %exitcond.not.i = icmp eq i64 %15, %13
  br i1 %exitcond.not.i, label %._crit_edge.i, label %.lr.ph.i, !llvm.loop !207

19:                                               ; preds = %7
  %20 = load i32, ptr %2, align 8, !tbaa !32
  %21 = icmp slt i32 %20, 0
  br i1 %21, label %_Py_NewRef.exit.i, label %22

22:                                               ; preds = %19
  %23 = add nuw i32 %20, 1
  store i32 %23, ptr %2, align 8, !tbaa !32
  %.pre.i = load ptr, ptr %8, align 8, !tbaa !27
  br label %_Py_NewRef.exit.i

_Py_NewRef.exit.i:                                ; preds = %22, %19
  %24 = phi ptr [ %9, %19 ], [ %.pre.i, %22 ]
  %25 = getelementptr ptr, ptr %24, i64 %1
  store ptr %2, ptr %25, align 8, !tbaa !112
  br label %26

26:                                               ; preds = %_Py_NewRef.exit.i, %._crit_edge.i
  %27 = load i32, ptr %11, align 8, !tbaa !32
  %.not.i.i = icmp sgt i32 %27, -1
  br i1 %.not.i.i, label %28, label %list_ass_item_lock_held.exit

28:                                               ; preds = %26
  %29 = add nsw i32 %27, -1
  store i32 %29, ptr %11, align 8, !tbaa !32
  %30 = icmp eq i32 %29, 0
  br i1 %30, label %31, label %list_ass_item_lock_held.exit

31:                                               ; preds = %28
  tail call void @_Py_Dealloc(ptr noundef nonnull %11) #12
  br label %list_ass_item_lock_held.exit

list_ass_item_lock_held.exit:                     ; preds = %5, %26, %28, %31
  %.020.i = phi i32 [ -1, %5 ], [ 0, %26 ], [ 0, %28 ], [ 0, %31 ]
  ret i32 %.020.i
}